; ModuleID = 'source-C-CXX/11/1473.cpp'
source_filename = "source-C-CXX/11/1473.cpp"
target datalayout = "e-m:e-p270:32:32-p271:32:32-p272:64:64-i64:64-f80:128-n8:16:32:64-S128"
target triple = "x86_64-pc-linux-gnu"

%"class.std::ios_base::Init" = type { i8 }
%"class.std::basic_istream" = type { i32 (...)**, i64, %"class.std::basic_ios" }
%"class.std::basic_ios" = type { %"class.std::ios_base", %"class.std::basic_ostream"*, i8, i8, %"class.std::basic_streambuf"*, %"class.std::ctype"*, %"class.std::num_put"*, %"class.std::num_get"* }
%"class.std::ios_base" = type { i32 (...)**, i64, i64, i32, i32, i32, %"struct.std::ios_base::_Callback_list"*, %"struct.std::ios_base::_Words", [8 x %"struct.std::ios_base::_Words"], i32, %"struct.std::ios_base::_Words"*, %"class.std::locale" }
%"struct.std::ios_base::_Callback_list" = type { %"struct.std::ios_base::_Callback_list"*, void (i32, %"class.std::ios_base"*, i32)*, i32, i32 }
%"struct.std::ios_base::_Words" = type { i8*, i64 }
%"class.std::locale" = type { %"class.std::locale::_Impl"* }
%"class.std::locale::_Impl" = type { i32, %"class.std::locale::facet"**, i64, %"class.std::locale::facet"**, i8** }
%"class.std::locale::facet" = type <{ i32 (...)**, i32, [4 x i8] }>
%"class.std::basic_ostream" = type { i32 (...)**, %"class.std::basic_ios" }
%"class.std::basic_streambuf" = type { i32 (...)**, i8*, i8*, i8*, i8*, i8*, i8*, %"class.std::locale" }
%"class.std::ctype" = type <{ %"class.std::locale::facet.base", [4 x i8], %struct.__locale_struct*, i8, [7 x i8], i32*, i32*, i16*, i8, [256 x i8], [256 x i8], i8, [6 x i8] }>
%"class.std::locale::facet.base" = type <{ i32 (...)**, i32 }>
%struct.__locale_struct = type { [13 x %struct.__locale_data*], i16*, i32*, i32*, [13 x i8*] }
%struct.__locale_data = type opaque
%"class.std::num_put" = type { %"class.std::locale::facet.base", [4 x i8] }
%"class.std::num_get" = type { %"class.std::locale::facet.base", [4 x i8] }

@_ZStL8__ioinit = internal global %"class.std::ios_base::Init" zeroinitializer, align 1
@__dso_handle = external hidden global i8
@_ZSt3cin = external global %"class.std::basic_istream", align 8
@_ZSt4cout = external global %"class.std::basic_ostream", align 8
@llvm.global_ctors = appending global [1 x { i32, void ()*, i8* }] [{ i32, void ()*, i8* } { i32 65535, void ()* @_GLOBAL__sub_I_1473.cpp, i8* null }]

declare void @_ZNSt8ios_base4InitC1Ev(%"class.std::ios_base::Init"* nonnull align 1 dereferenceable(1)) unnamed_addr #0

; Function Attrs: nounwind
declare void @_ZNSt8ios_base4InitD1Ev(%"class.std::ios_base::Init"* nonnull align 1 dereferenceable(1)) unnamed_addr #1

; Function Attrs: nofree nounwind
declare i32 @__cxa_atexit(void (i8*)*, i8*, i8*) local_unnamed_addr #2

; Function Attrs: mustprogress norecurse sspstrong uwtable
define dso_local i32 @main() local_unnamed_addr #3 {
  %1 = alloca [20 x i32], align 16
  %2 = bitcast [20 x i32]* %1 to i8*
  call void @llvm.lifetime.start.p0i8(i64 80, i8* nonnull %2) #9
  %3 = getelementptr inbounds [20 x i32], [20 x i32]* %1, i64 0, i64 1
  %4 = getelementptr inbounds [20 x i32], [20 x i32]* %1, i64 0, i64 2
  br label %5

5:                                                ; preds = %8, %0
  call void @llvm.memset.p0i8.i64(i8* noundef nonnull align 16 dereferenceable(80) %2, i8 0, i64 80, i1 false)
  %6 = call nonnull align 8 dereferenceable(16) %"class.std::basic_istream"* @_ZNSirsERi(%"class.std::basic_istream"* nonnull align 8 dereferenceable(16) @_ZSt3cin, i32* nonnull align 4 dereferenceable(4) %3)
  %7 = load i32, i32* %3, align 4, !tbaa !5
  switch i32 %7, label %9 [
    i32 -1, label %118
    i32 0, label %8
  ]

8:                                                ; preds = %5, %114
  br label %5, !llvm.loop !9

9:                                                ; preds = %5
  %10 = call nonnull align 8 dereferenceable(16) %"class.std::basic_istream"* @_ZNSirsERi(%"class.std::basic_istream"* nonnull align 8 dereferenceable(16) @_ZSt3cin, i32* nonnull align 4 dereferenceable(4) %4)
  %11 = load i32, i32* %4, align 8, !tbaa !5
  %12 = icmp eq i32 %11, 0
  br i1 %12, label %86, label %21

13:                                               ; preds = %73, %66
  %14 = phi i32 [ %68, %66 ], [ %83, %73 ]
  %15 = add nuw i64 %23, 1
  %16 = getelementptr inbounds [20 x i32], [20 x i32]* %1, i64 0, i64 %15
  %17 = call nonnull align 8 dereferenceable(16) %"class.std::basic_istream"* @_ZNSirsERi(%"class.std::basic_istream"* nonnull align 8 dereferenceable(16) @_ZSt3cin, i32* nonnull align 4 dereferenceable(4) %16)
  %18 = load i32, i32* %16, align 4, !tbaa !5
  %19 = icmp eq i32 %18, 0
  %20 = add i64 %22, 1
  br i1 %19, label %86, label %21, !llvm.loop !11

21:                                               ; preds = %9, %13
  %22 = phi i64 [ %20, %13 ], [ 0, %9 ]
  %23 = phi i64 [ %15, %13 ], [ 2, %9 ]
  %24 = phi i32 [ %18, %13 ], [ %11, %9 ]
  %25 = phi i32 [ %14, %13 ], [ 0, %9 ]
  %26 = add i64 %22, 1
  %27 = shl nsw i32 %24, 1
  %28 = icmp ult i64 %26, 8
  br i1 %28, label %70, label %29

29:                                               ; preds = %21
  %30 = and i64 %26, -8
  %31 = or i64 %30, 1
  %32 = insertelement <4 x i32> <i32 poison, i32 0, i32 0, i32 0>, i32 %25, i32 0
  %33 = insertelement <4 x i32> poison, i32 %24, i32 0
  %34 = shufflevector <4 x i32> %33, <4 x i32> poison, <4 x i32> zeroinitializer
  %35 = insertelement <4 x i32> poison, i32 %24, i32 0
  %36 = shufflevector <4 x i32> %35, <4 x i32> poison, <4 x i32> zeroinitializer
  %37 = insertelement <4 x i32> poison, i32 %27, i32 0
  %38 = shufflevector <4 x i32> %37, <4 x i32> poison, <4 x i32> zeroinitializer
  %39 = insertelement <4 x i32> poison, i32 %27, i32 0
  %40 = shufflevector <4 x i32> %39, <4 x i32> poison, <4 x i32> zeroinitializer
  br label %41

41:                                               ; preds = %41, %29
  %42 = phi i64 [ 0, %29 ], [ %64, %41 ]
  %43 = phi <4 x i32> [ %32, %29 ], [ %62, %41 ]
  %44 = phi <4 x i32> [ zeroinitializer, %29 ], [ %63, %41 ]
  %45 = or i64 %42, 1
  %46 = getelementptr inbounds [20 x i32], [20 x i32]* %1, i64 0, i64 %45
  %47 = bitcast i32* %46 to <4 x i32>*
  %48 = load <4 x i32>, <4 x i32>* %47, align 4, !tbaa !5
  %49 = getelementptr inbounds i32, i32* %46, i64 4
  %50 = bitcast i32* %49 to <4 x i32>*
  %51 = load <4 x i32>, <4 x i32>* %50, align 4, !tbaa !5
  %52 = shl nsw <4 x i32> %48, <i32 1, i32 1, i32 1, i32 1>
  %53 = shl nsw <4 x i32> %51, <i32 1, i32 1, i32 1, i32 1>
  %54 = icmp eq <4 x i32> %34, %52
  %55 = icmp eq <4 x i32> %36, %53
  %56 = icmp eq <4 x i32> %48, %38
  %57 = icmp eq <4 x i32> %51, %40
  %58 = select <4 x i1> %54, <4 x i1> <i1 true, i1 true, i1 true, i1 true>, <4 x i1> %56
  %59 = select <4 x i1> %55, <4 x i1> <i1 true, i1 true, i1 true, i1 true>, <4 x i1> %57
  %60 = zext <4 x i1> %58 to <4 x i32>
  %61 = zext <4 x i1> %59 to <4 x i32>
  %62 = add <4 x i32> %43, %60
  %63 = add <4 x i32> %44, %61
  %64 = add nuw i64 %42, 8
  %65 = icmp eq i64 %64, %30
  br i1 %65, label %66, label %41, !llvm.loop !12

66:                                               ; preds = %41
  %67 = add <4 x i32> %63, %62
  %68 = call i32 @llvm.vector.reduce.add.v4i32(<4 x i32> %67)
  %69 = icmp eq i64 %26, %30
  br i1 %69, label %13, label %70

70:                                               ; preds = %21, %66
  %71 = phi i64 [ 1, %21 ], [ %31, %66 ]
  %72 = phi i32 [ %25, %21 ], [ %68, %66 ]
  br label %73

73:                                               ; preds = %70, %73
  %74 = phi i64 [ %84, %73 ], [ %71, %70 ]
  %75 = phi i32 [ %83, %73 ], [ %72, %70 ]
  %76 = getelementptr inbounds [20 x i32], [20 x i32]* %1, i64 0, i64 %74
  %77 = load i32, i32* %76, align 4, !tbaa !5
  %78 = shl nsw i32 %77, 1
  %79 = icmp eq i32 %24, %78
  %80 = icmp eq i32 %77, %27
  %81 = select i1 %79, i1 true, i1 %80
  %82 = zext i1 %81 to i32
  %83 = add nsw i32 %75, %82
  %84 = add nuw nsw i64 %74, 1
  %85 = icmp eq i64 %84, %23
  br i1 %85, label %13, label %73, !llvm.loop !14

86:                                               ; preds = %13, %9
  %87 = phi i32 [ 0, %9 ], [ %14, %13 ]
  %88 = call nonnull align 8 dereferenceable(8) %"class.std::basic_ostream"* @_ZNSolsEi(%"class.std::basic_ostream"* nonnull align 8 dereferenceable(8) @_ZSt4cout, i32 %87)
  %89 = bitcast %"class.std::basic_ostream"* %88 to i8**
  %90 = load i8*, i8** %89, align 8, !tbaa !16
  %91 = getelementptr i8, i8* %90, i64 -24
  %92 = bitcast i8* %91 to i64*
  %93 = load i64, i64* %92, align 8
  %94 = bitcast %"class.std::basic_ostream"* %88 to i8*
  %95 = add nsw i64 %93, 240
  %96 = getelementptr inbounds i8, i8* %94, i64 %95
  %97 = bitcast i8* %96 to %"class.std::ctype"**
  %98 = load %"class.std::ctype"*, %"class.std::ctype"** %97, align 8, !tbaa !18
  %99 = icmp eq %"class.std::ctype"* %98, null
  br i1 %99, label %100, label %101

100:                                              ; preds = %86
  call void @_ZSt16__throw_bad_castv() #10
  unreachable

101:                                              ; preds = %86
  %102 = getelementptr inbounds %"class.std::ctype", %"class.std::ctype"* %98, i64 0, i32 8
  %103 = load i8, i8* %102, align 8, !tbaa !22
  %104 = icmp eq i8 %103, 0
  br i1 %104, label %108, label %105

105:                                              ; preds = %101
  %106 = getelementptr inbounds %"class.std::ctype", %"class.std::ctype"* %98, i64 0, i32 9, i64 10
  %107 = load i8, i8* %106, align 1, !tbaa !24
  br label %114

108:                                              ; preds = %101
  call void @_ZNKSt5ctypeIcE13_M_widen_initEv(%"class.std::ctype"* nonnull align 8 dereferenceable(570) %98)
  %109 = bitcast %"class.std::ctype"* %98 to i8 (%"class.std::ctype"*, i8)***
  %110 = load i8 (%"class.std::ctype"*, i8)**, i8 (%"class.std::ctype"*, i8)*** %109, align 8, !tbaa !16
  %111 = getelementptr inbounds i8 (%"class.std::ctype"*, i8)*, i8 (%"class.std::ctype"*, i8)** %110, i64 6
  %112 = load i8 (%"class.std::ctype"*, i8)*, i8 (%"class.std::ctype"*, i8)** %111, align 8
  %113 = call signext i8 %112(%"class.std::ctype"* nonnull align 8 dereferenceable(570) %98, i8 signext 10)
  br label %114

114:                                              ; preds = %105, %108
  %115 = phi i8 [ %107, %105 ], [ %113, %108 ]
  %116 = call nonnull align 8 dereferenceable(8) %"class.std::basic_ostream"* @_ZNSo3putEc(%"class.std::basic_ostream"* nonnull align 8 dereferenceable(8) %88, i8 signext %115)
  %117 = call nonnull align 8 dereferenceable(8) %"class.std::basic_ostream"* @_ZNSo5flushEv(%"class.std::basic_ostream"* nonnull align 8 dereferenceable(8) %116)
  br label %8

118:                                              ; preds = %5
  call void @llvm.lifetime.end.p0i8(i64 80, i8* nonnull %2) #9
  ret i32 0
}

; Function Attrs: argmemonly mustprogress nofree nosync nounwind willreturn
declare void @llvm.lifetime.start.p0i8(i64 immarg, i8* nocapture) #4

; Function Attrs: argmemonly mustprogress nofree nounwind willreturn writeonly
declare void @llvm.memset.p0i8.i64(i8* nocapture writeonly, i8, i64, i1 immarg) #5

declare nonnull align 8 dereferenceable(16) %"class.std::basic_istream"* @_ZNSirsERi(%"class.std::basic_istream"* nonnull align 8 dereferenceable(16), i32* nonnull align 4 dereferenceable(4)) local_unnamed_addr #0

declare nonnull align 8 dereferenceable(8) %"class.std::basic_ostream"* @_ZNSolsEi(%"class.std::basic_ostream"* nonnull align 8 dereferenceable(8), i32) local_unnamed_addr #0

; Function Attrs: argmemonly mustprogress nofree nosync nounwind willreturn
declare void @llvm.lifetime.end.p0i8(i64 immarg, i8* nocapture) #4

declare nonnull align 8 dereferenceable(8) %"class.std::basic_ostream"* @_ZNSo3putEc(%"class.std::basic_ostream"* nonnull align 8 dereferenceable(8), i8 signext) local_unnamed_addr #0

declare nonnull align 8 dereferenceable(8) %"class.std::basic_ostream"* @_ZNSo5flushEv(%"class.std::basic_ostream"* nonnull align 8 dereferenceable(8)) local_unnamed_addr #0

; Function Attrs: noreturn
declare void @_ZSt16__throw_bad_castv() local_unnamed_addr #6

declare void @_ZNKSt5ctypeIcE13_M_widen_initEv(%"class.std::ctype"* nonnull align 8 dereferenceable(570)) local_unnamed_addr #0

; Function Attrs: sspstrong uwtable
define internal void @_GLOBAL__sub_I_1473.cpp() #7 section ".text.startup" {
  tail call void @_ZNSt8ios_base4InitC1Ev(%"class.std::ios_base::Init"* nonnull align 1 dereferenceable(1) @_ZStL8__ioinit)
  %1 = tail call i32 @__cxa_atexit(void (i8*)* bitcast (void (%"class.std::ios_base::Init"*)* @_ZNSt8ios_base4InitD1Ev to void (i8*)*), i8* getelementptr inbounds (%"class.std::ios_base::Init", %"class.std::ios_base::Init"* @_ZStL8__ioinit, i64 0, i32 0), i8* nonnull @__dso_handle) #9
  ret void
}

; Function Attrs: nofree nosync nounwind readnone willreturn
declare i32 @llvm.vector.reduce.add.v4i32(<4 x i32>) #8


!llvm.module.flags = !{!0, !1, !2, !3}
!llvm.ident = !{!4}

!0 = !{i32 1, !"wchar_size", i32 4}
!1 = !{i32 7, !"PIC Level", i32 2}
!2 = !{i32 7, !"PIE Level", i32 2}
!3 = !{i32 7, !"uwtable", i32 1}
!4 = !{!"clang version 13.0.0"}
!5 = !{!6, !6, i64 0}
!6 = !{!"int", !7, i64 0}
!7 = !{!"omnipotent char", !8, i64 0}
!8 = !{!"Simple C++ TBAA"}
!9 = distinct !{!9, !10}
!10 = !{!"llvm.loop.mustprogress"}
!11 = distinct !{!11, !10}
!12 = distinct !{!12, !10, !13}
!13 = !{!"llvm.loop.isvectorized", i32 1}
!14 = distinct !{!14, !10, !15, !13}
!15 = !{!"llvm.loop.unroll.runtime.disable"}
!16 = !{!17, !17, i64 0}
!17 = !{!"vtable pointer", !8, i64 0}
!18 = !{!19, !20, i64 240}
!19 = !{!"_ZTSSt9basic_iosIcSt11char_traitsIcEE", !20, i64 216, !7, i64 224, !21, i64 225, !20, i64 232, !20, i64 240, !20, i64 248, !20, i64 256}
!20 = !{!"any pointer", !7, i64 0}
!21 = !{!"bool", !7, i64 0}
!22 = !{!23, !7, i64 56}
!23 = !{!"_ZTSSt5ctypeIcE", !20, i64 16, !21, i64 24, !20, i64 32, !20, i64 40, !20, i64 48, !7, i64 56, !7, i64 57, !7, i64 313, !7, i64 569}
!24 = !{!7, !7, i64 0}
